target datalayout = "e-m:e-p270:32:32-p271:32:32-p272:64:64-i64:64-i128:128-f80:128-n8:16:32:64-S128"
target triple = "x86_64-pc-linux-gnu"

%struct.gmx_ana_pos_t = type <{ ptr, ptr, ptr, %struct.gmx_ana_indexmap_t, i32, [4 x i8] }>
%struct.gmx_ana_indexmap_t = type { i32, ptr, ptr, %struct.t_blocka, ptr, %struct.t_blocka, i8 }
%struct.t_blocka = type { i32, ptr, i32, ptr, i32, i32 }
%class.anon = type { i8 }

@.str.1 = private unnamed_addr constant [128 x i8] c"generated/home/dtcxzyw/WorkSpace/Projects/compilers/llvm-opt-benchmark/bench/gromacs/gromacs/src/gromacs/selection/position.cpp\00", align 1
@.str.4 = private unnamed_addr constant [7 x i8] c"pos->x\00", align 1
@.str.5 = private unnamed_addr constant [7 x i8] c"pos->v\00", align 1
@.str.6 = private unnamed_addr constant [7 x i8] c"pos->f\00", align 1
@.str.7 = private unnamed_addr constant [7 x i8] c"n >= 0\00", align 1
@.str.8 = private unnamed_addr constant [34 x i8] c"Invalid position allocation count\00", align 1
@"__PRETTY_FUNCTION__._ZZ19gmx_ana_pos_reserveP13gmx_ana_pos_tiiENK3$_0clEv" = private unnamed_addr constant [91 x i8] c"auto gmx_ana_pos_reserve(gmx_ana_pos_t *, int, int)::(anonymous class)::operator()() const\00", align 1

; Function Attrs: mustprogress uwtable
define internal void @_ZL15gmx_srenew_implIA3_fEvPKcS2_iRPT_m(ptr noundef %0, ptr noundef %1, i32 noundef %2, ptr noundef nonnull align 8 dereferenceable(8) %3, i64 noundef %4) #0 {
  %6 = alloca ptr, align 8
  %7 = alloca ptr, align 8
  %8 = alloca i32, align 4
  %9 = alloca ptr, align 8
  %10 = alloca i64, align 8
  store ptr %0, ptr %6, align 8
  store ptr %1, ptr %7, align 8
  store i32 %2, ptr %8, align 4
  store ptr %3, ptr %9, align 8
  store i64 %4, ptr %10, align 8
  %11 = load ptr, ptr %6, align 8
  %12 = load ptr, ptr %7, align 8
  %13 = load i32, ptr %8, align 4
  %14 = load ptr, ptr %9, align 8
  %15 = load ptr, ptr %14, align 8
  %16 = load i64, ptr %10, align 8
  %17 = call noundef ptr @_Z12save_reallocPKcS0_iPvmm(ptr noundef %11, ptr noundef %12, i32 noundef %13, ptr noundef %15, i64 noundef %16, i64 noundef 12)
  %18 = load ptr, ptr %9, align 8
  store ptr %17, ptr %18, align 8
  ret void
}

; Function Attrs: mustprogress uwtable
define internal void @"_ZZ19gmx_ana_pos_reserveP13gmx_ana_pos_tiiENK3$_0clEv"(ptr noundef nonnull align 1 dereferenceable(1) %0) #0 align 2 {
  %2 = alloca ptr, align 8
  store ptr %0, ptr %2, align 8
  call void @_ZN3gmx8internal13assertHandlerEPKcS2_S2_S2_i(ptr noundef @.str.7, ptr noundef @.str.8, ptr noundef @"__PRETTY_FUNCTION__._ZZ19gmx_ana_pos_reserveP13gmx_ana_pos_tiiENK3$_0clEv", ptr noundef @.str.1, i32 noundef 79) #8
  unreachable
}

; Function Attrs: mustprogress uwtable
define void @_Z19gmx_ana_pos_reserveP13gmx_ana_pos_tii(ptr noundef %0, i32 noundef %1, i32 noundef %2) #0 {
  %4 = alloca ptr, align 8
  %5 = alloca i32, align 4
  %6 = alloca i32, align 4
  %7 = alloca %class.anon, align 1
  store ptr %0, ptr %4, align 8
  store i32 %1, ptr %5, align 4
  store i32 %2, ptr %6, align 4
  %8 = load i32, ptr %5, align 4
  %9 = icmp sge i32 %8, 0
  br i1 %9, label %10, label %11

10:                                               ; preds = %3
  br label %12

11:                                               ; preds = %3
  call void @"_ZZ19gmx_ana_pos_reserveP13gmx_ana_pos_tiiENK3$_0clEv"(ptr noundef nonnull align 1 dereferenceable(1) %7)
  br label %12

12:                                               ; preds = %11, %10
  %13 = load i32, ptr %5, align 4
  %14 = icmp eq i32 %13, 0
  br i1 %14, label %15, label %16

15:                                               ; preds = %12
  store i32 1, ptr %5, align 4
  br label %16

16:                                               ; preds = %15, %12
  %17 = load ptr, ptr %4, align 8
  %18 = getelementptr inbounds %struct.gmx_ana_pos_t, ptr %17, i32 0, i32 4
  %19 = load i32, ptr %18, align 8
  %20 = load i32, ptr %5, align 4
  %21 = icmp slt i32 %19, %20
  br i1 %21, label %22, label %50

22:                                               ; preds = %16
  %23 = load i32, ptr %5, align 4
  %24 = load ptr, ptr %4, align 8
  %25 = getelementptr inbounds %struct.gmx_ana_pos_t, ptr %24, i32 0, i32 4
  store i32 %23, ptr %25, align 8
  %26 = load ptr, ptr %4, align 8
  %27 = getelementptr inbounds %struct.gmx_ana_pos_t, ptr %26, i32 0, i32 0
  %28 = load i32, ptr %5, align 4
  %29 = sext i32 %28 to i64
  call void @_ZL15gmx_srenew_implIA3_fEvPKcS2_iRPT_m(ptr noundef @.str.4, ptr noundef @.str.1, i32 noundef 90, ptr noundef nonnull align 8 dereferenceable(8) %27, i64 noundef %29)
  %30 = load ptr, ptr %4, align 8
  %31 = getelementptr inbounds %struct.gmx_ana_pos_t, ptr %30, i32 0, i32 1
  %32 = load ptr, ptr %31, align 8
  %33 = icmp ne ptr %32, null
  br i1 %33, label %34, label %39

34:                                               ; preds = %22
  %35 = load ptr, ptr %4, align 8
  %36 = getelementptr inbounds %struct.gmx_ana_pos_t, ptr %35, i32 0, i32 1
  %37 = load i32, ptr %5, align 4
  %38 = sext i32 %37 to i64
  call void @_ZL15gmx_srenew_implIA3_fEvPKcS2_iRPT_m(ptr noundef @.str.5, ptr noundef @.str.1, i32 noundef 93, ptr noundef nonnull align 8 dereferenceable(8) %36, i64 noundef %38)
  br label %39

39:                                               ; preds = %34, %22
  %40 = load ptr, ptr %4, align 8
  %41 = getelementptr inbounds %struct.gmx_ana_pos_t, ptr %40, i32 0, i32 2
  %42 = load ptr, ptr %41, align 8
  %43 = icmp ne ptr %42, null
  br i1 %43, label %44, label %49

44:                                               ; preds = %39
  %45 = load ptr, ptr %4, align 8
  %46 = getelementptr inbounds %struct.gmx_ana_pos_t, ptr %45, i32 0, i32 2
  %47 = load i32, ptr %5, align 4
  %48 = sext i32 %47 to i64
  call void @_ZL15gmx_srenew_implIA3_fEvPKcS2_iRPT_m(ptr noundef @.str.6, ptr noundef @.str.1, i32 noundef 97, ptr noundef nonnull align 8 dereferenceable(8) %46, i64 noundef %48)
  br label %49

49:                                               ; preds = %44, %39
  br label %50

50:                                               ; preds = %49, %16
  %51 = load i32, ptr %6, align 4
  %52 = icmp sge i32 %51, 0
  br i1 %52, label %53, label %58

53:                                               ; preds = %50
  %54 = load ptr, ptr %4, align 8
  %55 = getelementptr inbounds %struct.gmx_ana_pos_t, ptr %54, i32 0, i32 3
  %56 = load i32, ptr %5, align 4
  %57 = load i32, ptr %6, align 4
  call void @_Z24gmx_ana_indexmap_reserveP18gmx_ana_indexmap_tii(ptr noundef %55, i32 noundef %56, i32 noundef %57)
  br label %58

58:                                               ; preds = %53, %50
  ret void
}