; Function Attrs: mustprogress uwtable
define void @_Z19gmx_ana_pos_reserveP13gmx_ana_pos_tii(ptr noundef %0, i32 noundef %1, i32 noundef %2) local_unnamed_addr #0 {
  %4 = icmp sgt i32 %1, -1
  br i1 %4, label %6, label %5

5:                                                ; preds = %3
  tail call void @_ZN3gmx8internal13assertHandlerEPKcS2_S2_S2_i(ptr noundef nonnull @.str.7, ptr noundef nonnull @.str.8, ptr noundef nonnull @"__PRETTY_FUNCTION__._ZZ19gmx_ana_pos_reserveP13gmx_ana_pos_tiiENK3$_0clEv", ptr noundef nonnull @.str.1, i32 noundef 79) #14
  unreachable

6:                                                ; preds = %3
  %spec.store.select = tail call i32 @llvm.umax.i32(i32 %1, i32 1)
  %7 = getelementptr inbounds i8, ptr %0, i64 144
  %8 = load i32, ptr %7, align 8
  %9 = icmp slt i32 %8, %spec.store.select
  br i1 %9, label %10, label %23

10:                                               ; preds = %6
  store i32 %spec.store.select, ptr %7, align 8
  %11 = zext nneg i32 %spec.store.select to i64
  %12 = load ptr, ptr %0, align 8
  %13 = tail call noundef ptr @_Z12save_reallocPKcS0_iPvmm(ptr noundef nonnull @.str.4, ptr noundef nonnull @.str.1, i32 noundef 90, ptr noundef %12, i64 noundef %11, i64 noundef 12)
  store ptr %13, ptr %0, align 8
  %14 = getelementptr inbounds i8, ptr %0, i64 8
  %15 = load ptr, ptr %14, align 8
  %.not = icmp eq ptr %15, null
  br i1 %.not, label %18, label %16

16:                                               ; preds = %10
  %17 = tail call noundef ptr @_Z12save_reallocPKcS0_iPvmm(ptr noundef nonnull @.str.5, ptr noundef nonnull @.str.1, i32 noundef 93, ptr noundef nonnull %15, i64 noundef %11, i64 noundef 12)
  store ptr %17, ptr %14, align 8
  br label %18

18:                                               ; preds = %16, %10
  %19 = getelementptr inbounds i8, ptr %0, i64 16
  %20 = load ptr, ptr %19, align 8
  %.not17 = icmp eq ptr %20, null
  br i1 %.not17, label %23, label %21

21:                                               ; preds = %18
  %22 = tail call noundef ptr @_Z12save_reallocPKcS0_iPvmm(ptr noundef nonnull @.str.6, ptr noundef nonnull @.str.1, i32 noundef 97, ptr noundef nonnull %20, i64 noundef %11, i64 noundef 12)
  store ptr %22, ptr %19, align 8
  br label %23

23:                                               ; preds = %18, %21, %6
  %24 = icmp sgt i32 %2, -1
  br i1 %24, label %25, label %27

25:                                               ; preds = %23
  %26 = getelementptr inbounds i8, ptr %0, i64 24
  tail call void @_Z24gmx_ana_indexmap_reserveP18gmx_ana_indexmap_tii(ptr noundef nonnull %26, i32 noundef %spec.store.select, i32 noundef %2)
  br label %27

27:                                               ; preds = %25, %23
  ret void
}